; Function Attrs: mustprogress nounwind uwtable
define internal fastcc noundef zeroext i1 @_ZN12_GLOBAL__N_110MasmParser18parseDirectiveLineEv(ptr noundef nonnull align 8 dereferenceable(1144) %0) unnamed_addr #0 align 2 {
  %2 = alloca i64, align 8
  %3 = alloca %"class.llvm::Twine", align 8
  %4 = load ptr, ptr %0, align 8
  %5 = getelementptr inbounds nuw i8, ptr %4, i64 40
  %6 = load ptr, ptr %5, align 8
  %7 = tail call noundef nonnull align 8 dereferenceable(144) ptr %6(ptr noundef nonnull align 8 dereferenceable(1144) %0) #24
  %8 = getelementptr inbounds nuw i8, ptr %7, i64 8
  %9 = load ptr, ptr %8, align 8
  %10 = load i32, ptr %9, align 8
  %11 = icmp eq i32 %10, 4
  br i1 %11, label %12, label %16

12:                                               ; preds = %1
  %13 = getelementptr inbounds nuw i8, ptr %3, i64 32
  %14 = getelementptr inbounds nuw i8, ptr %3, i64 33
  store i8 1, ptr %14, align 1
  store ptr @.str.236, ptr %3, align 8
  store i8 3, ptr %13, align 8
  %15 = call noundef zeroext i1 @_ZN4llvm11MCAsmParser13parseIntTokenERlRKNS_5TwineE(ptr noundef nonnull align 8 dereferenceable(34) %0, ptr noundef nonnull align 8 dereferenceable(8) %2, ptr noundef nonnull align 8 dereferenceable(34) %3) #24
  br i1 %15, label %18, label %16

16:                                               ; preds = %12, %1
  %17 = call noundef zeroext i1 @_ZN4llvm11MCAsmParser8parseEOLEv(ptr noundef nonnull align 8 dereferenceable(34) %0) #24
  br label %18

18:                                               ; preds = %16, %12
  %.0 = phi i1 [ true, %12 ], [ %17, %16 ]
  ret i1 %.0
}